; ModuleID = '31/2000.c'
source_filename = "31/2000.c"
target datalayout = "e-m:e-p270:32:32-p271:32:32-p272:64:64-i64:64-f80:128-n8:16:32:64-S128"
target triple = "x86_64-pc-linux-gnu"

%struct.node = type { [100 x i8], %struct.node* }

@.str = private unnamed_addr constant [4 x i8] c"end\00", align 1

; Function Attrs: noinline nounwind uwtable
define dso_local void @main() #0 {
  %1 = alloca %struct.node*, align 8
  %2 = alloca %struct.node*, align 8
  %3 = alloca [100 x i8], align 16
  store %struct.node* null, %struct.node** %1, align 8
  %4 = getelementptr inbounds [100 x i8], [100 x i8]* %3, i64 0, i64 0
  %5 = call i32 (i8*, ...) bitcast (i32 (...)* @gets to i32 (i8*, ...)*)(i8* %4)
  br label %6

6:                                                ; preds = %10, %0
  %7 = getelementptr inbounds [100 x i8], [100 x i8]* %3, i64 0, i64 0
  %8 = call i32 @strcmp(i8* %7, i8* getelementptr inbounds ([4 x i8], [4 x i8]* @.str, i64 0, i64 0)) #4
  %9 = icmp ne i32 %8, 0
  br i1 %9, label %10, label %24

10:                                               ; preds = %6
  %11 = call noalias i8* @malloc(i64 112) #5
  %12 = bitcast i8* %11 to %struct.node*
  store %struct.node* %12, %struct.node** %2, align 8
  %13 = load %struct.node*, %struct.node** %2, align 8
  %14 = getelementptr inbounds %struct.node, %struct.node* %13, i32 0, i32 0
  %15 = getelementptr inbounds [100 x i8], [100 x i8]* %14, i64 0, i64 0
  %16 = getelementptr inbounds [100 x i8], [100 x i8]* %3, i64 0, i64 0
  %17 = call i8* @strcpy(i8* %15, i8* %16) #5
  %18 = load %struct.node*, %struct.node** %1, align 8
  %19 = load %struct.node*, %struct.node** %2, align 8
  %20 = getelementptr inbounds %struct.node, %struct.node* %19, i32 0, i32 1
  store %struct.node* %18, %struct.node** %20, align 8
  %21 = load %struct.node*, %struct.node** %2, align 8
  store %struct.node* %21, %struct.node** %1, align 8
  %22 = getelementptr inbounds [100 x i8], [100 x i8]* %3, i64 0, i64 0
  %23 = call i32 (i8*, ...) bitcast (i32 (...)* @gets to i32 (i8*, ...)*)(i8* %22)
  br label %6

24:                                               ; preds = %6
  br label %25

25:                                               ; preds = %28, %24
  %26 = load %struct.node*, %struct.node** %1, align 8
  %27 = icmp ne %struct.node* %26, null
  br i1 %27, label %28, label %36

28:                                               ; preds = %25
  %29 = load %struct.node*, %struct.node** %1, align 8
  %30 = getelementptr inbounds %struct.node, %struct.node* %29, i32 0, i32 0
  %31 = getelementptr inbounds [100 x i8], [100 x i8]* %30, i64 0, i64 0
  %32 = call i32 @puts(i8* %31)
  %33 = load %struct.node*, %struct.node** %1, align 8
  %34 = getelementptr inbounds %struct.node, %struct.node* %33, i32 0, i32 1
  %35 = load %struct.node*, %struct.node** %34, align 8
  store %struct.node* %35, %struct.node** %1, align 8
  br label %25

36:                                               ; preds = %25
  ret void
}

declare dso_local i32 @gets(...) #1

; Function Attrs: nounwind readonly
declare dso_local i32 @strcmp(i8*, i8*) #2

; Function Attrs: nounwind
declare dso_local noalias i8* @malloc(i64) #3

; Function Attrs: nounwind
declare dso_local i8* @strcpy(i8*, i8*) #3

declare dso_local i32 @puts(i8*) #1


!llvm.module.flags = !{!0}
!llvm.ident = !{!1}

!0 = !{i32 1, !"wchar_size", i32 4}
!1 = !{!"clang version 10.0.0-4ubuntu1 "}
