; ModuleID = 'source-C-CXX/30/2000.c'
source_filename = "source-C-CXX/30/2000.c"
target datalayout = "e-m:e-p270:32:32-p271:32:32-p272:64:64-i64:64-f80:128-n8:16:32:64-S128"
target triple = "x86_64-pc-linux-gnu"

%struct.node = type { [100 x i8], %struct.node* }

; Function Attrs: nounwind sspstrong uwtable
define dso_local void @main() local_unnamed_addr #0 {
  %1 = alloca [100 x i8], align 16
  %2 = getelementptr inbounds [100 x i8], [100 x i8]* %1, i64 0, i64 0
  call void @llvm.lifetime.start.p0i8(i64 100, i8* nonnull %2) #6
  %3 = call i32 (i8*, ...) bitcast (i32 (...)* @gets to i32 (i8*, ...)*)(i8* nonnull %2) #6
  %4 = bitcast [100 x i8]* %1 to i32*
  %5 = load i32, i32* %4, align 16
  %6 = icmp eq i32 %5, 6581861
  br i1 %6, label %26, label %9

7:                                                ; preds = %9
  %8 = bitcast i8* %11 to %struct.node*
  br label %19

9:                                                ; preds = %0, %9
  %10 = phi %struct.node* [ %12, %9 ], [ null, %0 ]
  %11 = call noalias align 16 dereferenceable_or_null(112) i8* @malloc(i64 112) #6
  %12 = bitcast i8* %11 to %struct.node*
  %13 = getelementptr inbounds %struct.node, %struct.node* %12, i64 0, i32 0, i64 0
  %14 = call i8* @strcpy(i8* noundef nonnull dereferenceable(1) %13, i8* noundef nonnull %2) #6
  %15 = getelementptr inbounds %struct.node, %struct.node* %12, i64 0, i32 1
  store %struct.node* %10, %struct.node** %15, align 8, !tbaa !5
  %16 = call i32 (i8*, ...) bitcast (i32 (...)* @gets to i32 (i8*, ...)*)(i8* nonnull %2) #6
  %17 = load i32, i32* %4, align 16
  %18 = icmp eq i32 %17, 6581861
  br i1 %18, label %7, label %9, !llvm.loop !10

19:                                               ; preds = %7, %19
  %20 = phi %struct.node* [ %24, %19 ], [ %8, %7 ]
  %21 = getelementptr inbounds %struct.node, %struct.node* %20, i64 0, i32 0, i64 0
  %22 = call i32 @puts(i8* nonnull %21)
  %23 = getelementptr inbounds %struct.node, %struct.node* %20, i64 0, i32 1
  %24 = load %struct.node*, %struct.node** %23, align 8, !tbaa !5
  %25 = icmp eq %struct.node* %24, null
  br i1 %25, label %26, label %19, !llvm.loop !12

26:                                               ; preds = %19, %0
  call void @llvm.lifetime.end.p0i8(i64 100, i8* nonnull %2) #6
  ret void
}

; Function Attrs: argmemonly mustprogress nofree nosync nounwind willreturn
declare void @llvm.lifetime.start.p0i8(i64 immarg, i8* nocapture) #1

declare i32 @gets(...) local_unnamed_addr #2

; Function Attrs: inaccessiblememonly mustprogress nofree nounwind willreturn
declare noalias noundef align 16 i8* @malloc(i64 noundef) local_unnamed_addr #3

; Function Attrs: argmemonly mustprogress nofree nounwind willreturn
declare i8* @strcpy(i8* noalias returned writeonly, i8* noalias nocapture readonly) local_unnamed_addr #4

; Function Attrs: nofree nounwind
declare noundef i32 @puts(i8* nocapture noundef readonly) local_unnamed_addr #5

; Function Attrs: argmemonly mustprogress nofree nosync nounwind willreturn
declare void @llvm.lifetime.end.p0i8(i64 immarg, i8* nocapture) #1


!llvm.module.flags = !{!0, !1, !2, !3}
!llvm.ident = !{!4}

!0 = !{i32 1, !"wchar_size", i32 4}
!1 = !{i32 7, !"PIC Level", i32 2}
!2 = !{i32 7, !"PIE Level", i32 2}
!3 = !{i32 7, !"uwtable", i32 1}
!4 = !{!"clang version 13.0.0"}
!5 = !{!6, !9, i64 104}
!6 = !{!"node", !7, i64 0, !9, i64 104}
!7 = !{!"omnipotent char", !8, i64 0}
!8 = !{!"Simple C/C++ TBAA"}
!9 = !{!"any pointer", !7, i64 0}
!10 = distinct !{!10, !11}
!11 = !{!"llvm.loop.mustprogress"}
!12 = distinct !{!12, !11}
